(dp0
I0
(dp1
S'category'
p2
S'protection'
p3
sS'comment'
p4
S'to vddc'
p5
sS'net'
p6
S'vddp1'
p7
sS'decoupling'
p8
S'-'
p9
ssI1
(dp10
g2
S'protection'
p11
sg4
S'to gndc'
p12
sg6
S'gndp1'
p13
sg8
g9
ssI2
(dp14
g2
S'power'
p15
sg4
S'CSA 1.8V'
p16
sg6
S'vddc'
p17
sg8
S'gndc'
p18
ssI3
(dp19
g2
S'power'
p20
sg4
S'CSA 0.0V'
p21
sg6
S'gndc'
p22
sg8
S'vddc'
p23
ssI4
(dp24
g2
S'input'
p25
sg4
S'CSA, to connector'
p26
sg6
S'ampIn0'
p27
sg8
g9
ssI5
(dp28
g2
S'input'
p29
sg4
S'CSA, to connector'
p30
sg6
S'ampIn1'
p31
sg8
g9
ssI6
(dp32
g2
S'input'
p33
sg4
S'CSA, to connector'
p34
sg6
S'ampIn2'
p35
sg8
g9
ssI7
(dp36
g2
S'input'
p37
sg4
S'CSA, to connector'
p38
sg6
S'ampIn3'
p39
sg8
g9
ssI8
(dp40
g2
S'input'
p41
sg4
S'CSA, to connector'
p42
sg6
S'ampIn4'
p43
sg8
g9
ssI9
(dp44
g2
S'input'
p45
sg4
S'CSA, to connector'
p46
sg6
S'ampIn5'
p47
sg8
g9
ssI10
(dp48
g2
S'input'
p49
sg4
S'CSA, to connector'
p50
sg6
S'ampIn6'
p51
sg8
g9
ssI11
(dp52
g2
S'input'
p53
sg4
S'CSA, to connector'
p54
sg6
S'ampIn7'
p55
sg8
g9
ssI12
(dp56
g2
S'bulk'
p57
sg4
S'also in digital part'
p58
sg6
S'gndb'
p59
sg8
g9
ssI13
(dp60
g2
S'power'
p61
sg4
S'CSA 1.8V'
p62
sg6
S'vddc'
p63
sg8
S'gndc'
p64
ssI14
(dp65
g2
S'power'
p66
sg4
S'CSA 0.0V'
p67
sg6
S'gndc'
p68
sg8
S'vddc'
p69
ssI15
(dp70
g2
S'input'
p71
sg4
S'CSA, to connector'
p72
sg6
S'ampIn8'
p73
sg8
g9
ssI16
(dp74
g2
S'input'
p75
sg4
S'CSA, to connector'
p76
sg6
S'ampIn9'
p77
sg8
g9
ssI17
(dp78
g2
S'input'
p79
sg4
S'CSA, to connector'
p80
sg6
S'ampIn10'
p81
sg8
g9
ssI18
(dp82
g2
S'input'
p83
sg4
S'CSA, to connector'
p84
sg6
S'ampIn11'
p85
sg8
g9
ssI19
(dp86
g2
S'input'
p87
sg4
S'CSA, to connector'
p88
sg6
S'ampIn12'
p89
sg8
g9
ssI20
(dp90
g2
S'input'
p91
sg4
S'CSA, to connector'
p92
sg6
S'ampIn13'
p93
sg8
g9
ssI21
(dp94
g2
S'input'
p95
sg4
S'CSA, to connector'
p96
sg6
S'ampIn14'
p97
sg8
g9
ssI22
(dp98
g2
S'input'
p99
sg4
S'CSA, to connector'
p100
sg6
S'ampIn15'
p101
sg8
g9
ssI23
(dp102
g2
S'bulk'
p103
sg4
S'also in digital part'
p104
sg6
S'gndb'
p105
sg8
g9
ssI24
(dp106
g2
S'power'
p107
sg4
S'CSA 1.8V'
p108
sg6
S'vddc'
p109
sg8
S'gndc'
p110
ssI25
(dp111
g2
S'power'
p112
sg4
S'CSA 0.0V'
p113
sg6
S'gndc'
p114
sg8
S'vddc'
p115
ssI26
(dp116
g2
S'input'
p117
sg4
S'CSA, to connector'
p118
sg6
S'ampIn16'
p119
sg8
g9
ssI27
(dp120
g2
S'input'
p121
sg4
S'CSA, to connector'
p122
sg6
S'ampIn17'
p123
sg8
g9
ssI28
(dp124
g2
S'input'
p125
sg4
S'CSA, to connector'
p126
sg6
S'ampIn18'
p127
sg8
g9
ssI29
(dp128
g2
S'input'
p129
sg4
S'CSA, to connector'
p130
sg6
S'ampIn19'
p131
sg8
g9
ssI30
(dp132
g2
S'input'
p133
sg4
S'CSA, to connector'
p134
sg6
S'ampIn20'
p135
sg8
g9
ssI31
(dp136
g2
S'input'
p137
sg4
S'CSA, to connector'
p138
sg6
S'ampIn21'
p139
sg8
g9
ssI32
(dp140
g2
S'input'
p141
sg4
S'CSA, to connector'
p142
sg6
S'ampIn22'
p143
sg8
g9
ssI33
(dp144
g2
S'input'
p145
sg4
S'CSA, to connector'
p146
sg6
S'ampIn23'
p147
sg8
g9
ssI34
(dp148
g2
S'bulk'
p149
sg4
S'also in digital part'
p150
sg6
S'gndb'
p151
sg8
g9
ssI35
(dp152
g2
S'power'
p153
sg4
S'CSA 1.8V'
p154
sg6
S'vddc'
p155
sg8
S'gndc'
p156
ssI36
(dp157
g2
S'power'
p158
sg4
S'CSA 0.0V'
p159
sg6
S'gndc'
p160
sg8
S'vddc'
p161
ssI37
(dp162
g2
S'input'
p163
sg4
S'CSA, to connector'
p164
sg6
S'ampIn24'
p165
sg8
g9
ssI38
(dp166
g2
S'input'
p167
sg4
S'CSA, to connector'
p168
sg6
S'ampIn25'
p169
sg8
g9
ssI39
(dp170
g2
S'input'
p171
sg4
S'CSA, to connector'
p172
sg6
S'ampIn26'
p173
sg8
g9
ssI40
(dp174
g2
S'input'
p175
sg4
S'CSA, to connector'
p176
sg6
S'ampIn27'
p177
sg8
g9
ssI41
(dp178
g2
S'input'
p179
sg4
S'CSA, to connector'
p180
sg6
S'ampIn28'
p181
sg8
g9
ssI42
(dp182
g2
S'input'
p183
sg4
S'CSA, to connector'
p184
sg6
S'ampIn29'
p185
sg8
g9
ssI43
(dp186
g2
S'input'
p187
sg4
S'CSA, to connector'
p188
sg6
S'ampIn30'
p189
sg8
g9
ssI44
(dp190
g2
S'input'
p191
sg4
S'CSA, to connector'
p192
sg6
S'ampIn31'
p193
sg8
g9
ssI45
(dp194
g2
S'protection'
p195
sg4
S'to vddc'
p196
sg6
S'vddp1'
p197
sg8
g9
ssI46
(dp198
g2
S'protection'
p199
sg4
S'to gndc'
p200
sg6
S'gndp1'
p201
sg8
g9
ssI47
(dp202
g2
S'power'
p203
sg4
S'CSA 1.8V'
p204
sg6
S'vddc'
p205
sg8
S'gndc'
p206
ssI48
(dp207
g2
S'power'
p208
sg4
S'CSA 0.0V'
p209
sg6
S'gndc'
p210
sg8
S'vddc'
p211
ssI49
(dp212
g2
S'bias'
p213
sg4
S'ADC + analog CSA trigger'
p214
sg6
S'DecAdcVdda3'
p215
sg8
S'vdda'
p216
ssI50
(dp217
g2
S'bias'
p218
sg4
S'ADC, internally switchable'
p219
sg6
S'DecAdcVdda2'
p220
sg8
S'vdda'
p221
ssI51
(dp222
g2
S'bias'
p223
sg4
S'ADC, internally switchable'
p224
sg6
S'DecAdcVdda1'
p225
sg8
S'vdda'
p226
ssI52
(dp227
g2
S'bias'
p228
sg4
S'ADC, internally switchable'
p229
sg6
S'DecAdcAmpLow2'
p230
sg8
S'AmpLow'
p231
ssI53
(dp232
g2
S'bias'
p233
sg4
S'ADC, internally switchable'
p234
sg6
S'DecAdcAmpLow1'
p235
sg8
S'AmpLow'
p236
ssI54
(dp237
g2
S'bias'
p238
sg4
S'ADC, internally switchable'
p239
sg6
S'DecAdcGnda2'
p240
sg8
S'gnda'
p241
ssI55
(dp242
g2
S'bias'
p243
sg4
S'ADC, internally switchable'
p244
sg6
S'DecAdcGnda1'
p245
sg8
S'gnda'
p246
ssI56
(dp247
g2
S'power'
p248
sg4
S'ADC analog 1.8V'
p249
sg6
S'vdda'
p250
sg8
S'gnda'
p251
ssI57
(dp252
g2
S'power'
p253
sg4
S'ADC analog 0.0V'
p254
sg6
S'gnda'
p255
sg8
S'vdda'
p256
ssI58
(dp257
g2
S'power'
p258
sg4
S'ADC analog 0.3V'
p259
sg6
S'AmpLow'
p260
sg8
S'vdda'
p261
ssI59
(dp262
g2
S'power'
p263
sg4
S'ADC analog 0.96V'
p264
sg6
S'RefIn'
p265
sg8
S'gnda'
p266
ssI60
(dp267
g2
S'power'
p268
sg4
S'ADC digital 1.8V'
p269
sg6
S'vddd1'
p270
sg8
S'gndd1'
p271
ssI61
(dp272
g2
S'power'
p273
sg4
S'ADC digital 0.0V'
p274
sg6
S'gndd1'
p275
sg8
S'vddd1'
p276
ssI62
(dp277
g2
S'bulk'
p278
sg4
S'also in digital part'
p279
sg6
S'gndb'
p280
sg8
g9
ssI63
(dp281
g2
S'protection'
p282
sg4
S'lower ADC pins, to vdda'
p283
sg6
S'vddp3'
p284
sg8
g9
ssI64
(dp285
g2
S'protection'
p286
sg4
S'lower ADC pins, to gnda'
p287
sg6
S'gndp3'
p288
sg8
g9
ssI65
(dp289
g2
S'unused'
p290
sg4
S'DNC'
p291
sg6
S'DNC'
p292
sg8
g9
ssI66
(dp293
g2
S'power'
p294
sg4
S'1.8V'
p295
sg6
S'vddd2'
p296
sg8
S'gndd2'
p297
ssI67
(dp298
g2
S'power'
p299
sg4
S'0.0V'
p300
sg6
S'gndd2'
p301
sg8
S'vddd2'
p302
ssI68
(dp303
g2
S'unused'
p304
sg4
S'DNC'
p305
sg6
S'DNC'
p306
sg8
g9
ssI69
(dp307
g2
S'unused'
p308
sg4
S'DNC'
p309
sg6
S'DNC'
p310
sg8
g9
ssI70
(dp311
g2
S'protection'
p312
sg4
S'digital pads, to vddd2'
p313
sg6
S'vddo'
p314
sg8
g9
ssI71
(dp315
g2
S'protection'
p316
sg4
S'digital pads. to gndd2'
p317
sg6
S'gndo'
p318
sg8
g9
ssI72
(dp319
g2
S'bulk'
p320
sg4
S'also in analog part'
p321
sg6
S'gndb'
p322
sg8
g9
ssI73
(dp323
g2
S'lvds input'
p324
sg4
S'to connector'
p325
sg6
S'miscInBotN2'
p326
sg8
g9
ssI74
(dp327
g2
S'lvds input'
p328
sg4
S'to connector'
p329
sg6
S'miscInBotP2'
p330
sg8
g9
ssI75
(dp331
g2
S'power'
p332
sg4
S'1.8V'
p333
sg6
S'vddd2'
p334
sg8
S'gndd2'
p335
ssI76
(dp336
g2
S'power'
p337
sg4
S'0.0V'
p338
sg6
S'gndd2'
p339
sg8
S'vddd2'
p340
ssI77
(dp341
g2
S'lvds input'
p342
sg4
S'to connector'
p343
sg6
S'miscInBotN1'
p344
sg8
g9
ssI78
(dp345
g2
S'lvds input'
p346
sg4
S'to connector'
p347
sg6
S'miscInBotP1'
p348
sg8
g9
ssI79
(dp349
g2
S'lvds input'
p350
sg4
S'to connector'
p351
sg6
S'miscInBotN0'
p352
sg8
g9
ssI80
(dp353
g2
S'lvds input'
p354
sg4
S'to connector'
p355
sg6
S'miscInBotP0'
p356
sg8
g9
ssI81
(dp357
g2
S'lvds bias'
p358
sg4
S''
p359
sg6
S'BiasNBotIn'
p360
sg8
S'gndd2'
p361
ssI82
(dp362
g2
S'lvds output'
p363
sg4
S'to connector'
p364
sg6
S'miscOutBotN3'
p365
sg8
g9
ssI83
(dp366
g2
S'lvds output'
p367
sg4
S'to connector'
p368
sg6
S'miscOutBotP3'
p369
sg8
g9
ssI84
(dp370
g2
S'power'
p371
sg4
S'1.8V'
p372
sg6
S'vddd2'
p373
sg8
S'gndd2'
p374
ssI85
(dp375
g2
S'power'
p376
sg4
S'0.0V'
p377
sg6
S'gndd2'
p378
sg8
S'vddd2'
p379
ssI86
(dp380
g2
S'lvds output'
p381
sg4
S'to connector'
p382
sg6
S'miscOutBotN2'
p383
sg8
g9
ssI87
(dp384
g2
S'lvds output'
p385
sg4
S'to connector'
p386
sg6
S'miscOutBotP2'
p387
sg8
g9
ssI88
(dp388
g2
S'protection'
p389
sg4
S'digital pads, to vddd2'
p390
sg6
S'vddo'
p391
sg8
g9
ssI89
(dp392
g2
S'protection'
p393
sg4
S'digital pads. to gndd2'
p394
sg6
S'gndo'
p395
sg8
g9
ssI90
(dp396
g2
S'bulk'
p397
sg4
S'also in analog part'
p398
sg6
S'gndb'
p399
sg8
g9
ssI91
(dp400
g2
S'lvds bias'
p401
sg4
g359
sg6
S'BiasNBotOut'
p402
sg8
S'gndd2'
p403
ssI92
(dp404
g2
S'lvds output'
p405
sg4
S'to connector'
p406
sg6
S'miscOutBotN1'
p407
sg8
g9
ssI93
(dp408
g2
S'lvds output'
p409
sg4
S'to connector'
p410
sg6
S'miscOutBotP1'
p411
sg8
g9
ssI94
(dp412
g2
S'power'
p413
sg4
S'1.8V'
p414
sg6
S'vddd2'
p415
sg8
S'gndd2'
p416
ssI95
(dp417
g2
S'power'
p418
sg4
S'0.0V'
p419
sg6
S'gndd2'
p420
sg8
S'vddd2'
p421
ssI96
(dp422
g2
S'lvds output'
p423
sg4
S'to connector'
p424
sg6
S'miscOutBotN0'
p425
sg8
g9
ssI97
(dp426
g2
S'lvds output'
p427
sg4
S'to connector'
p428
sg6
S'miscOutBotP0'
p429
sg8
g9
ssI98
(dp430
g2
S'lvds output'
p431
sg4
S'to connector, fast link'
p432
sg6
S'dataOutBN'
p433
sg8
g9
ssI99
(dp434
g2
S'lvds output'
p435
sg4
S'to connector, fast link'
p436
sg6
S'dataOutBP'
p437
sg8
g9
ssI100
(dp438
g2
S'lvds output'
p439
sg4
S'to connector, fast link'
p440
sg6
S'dataOutAN'
p441
sg8
g9
ssI101
(dp442
g2
S'lvds output'
p443
sg4
S'to connector, fast link'
p444
sg6
S'dataOutAP'
p445
sg8
g9
ssI102
(dp446
g2
S'lvds bias'
p447
sg4
S'fast links'
p448
sg6
S'BiasNRightOut2'
p449
sg8
S'gndd2'
p450
ssI103
(dp451
g2
S'power'
p452
sg4
S'1.8V'
p453
sg6
S'vddd2'
p454
sg8
S'gndd2'
p455
ssI104
(dp456
g2
S'power'
p457
sg4
S'0.0V'
p458
sg6
S'gndd2'
p459
sg8
S'vddd2'
p460
ssI105
(dp461
g2
S'bulk'
p462
sg4
S'also in analog part'
p463
sg6
S'gndb'
p464
sg8
g9
ssI106
(dp465
g2
S'protection'
p466
sg4
S'digital pads. to gndd2'
p467
sg6
S'gndo'
p468
sg8
g9
ssI107
(dp469
g2
S'protection'
p470
sg4
S'digital pads, to vddd2'
p471
sg6
S'vddo'
p472
sg8
g9
ssI108
(dp473
g2
S'cmos output'
p474
sg4
S'to led + tp'
p475
sg6
S'userpin2'
p476
sg8
g9
ssI109
(dp477
g2
S'cmos output'
p478
sg4
S'to led + tp'
p479
sg6
S'userpin1'
p480
sg8
g9
ssI110
(dp481
g2
S'unused'
p482
sg4
S'DNC'
p483
sg6
S'DNC'
p484
sg8
g9
ssI111
(dp485
g2
S'cmos output'
p486
sg4
S'to led + tp'
p487
sg6
S'serdesReady'
p488
sg8
g9
ssI112
(dp489
g2
S'cmos output'
p490
sg4
S'tp'
p491
sg6
S'resN10'
p492
sg8
g9
ssI113
(dp493
g2
S'cmos output'
p494
sg4
S'tp'
p495
sg6
S'resN2'
p496
sg8
g9
ssI114
(dp497
g2
S'cmos output'
p498
sg4
S'tp'
p499
sg6
S'resN1'
p500
sg8
g9
ssI115
(dp501
g2
S'power'
p502
sg4
S'1.8V'
p503
sg6
S'vddd2'
p504
sg8
S'gndd2'
p505
ssI116
(dp506
g2
S'power'
p507
sg4
S'0.0V'
p508
sg6
S'gndd2'
p509
sg8
S'vddd2'
p510
ssI117
(dp511
g2
S'I2C'
p512
sg4
S'pull-up (opt.), to 4pin'
p513
sg6
S'SCL'
p514
sg8
g9
ssI118
(dp515
g2
S'I2C'
p516
sg4
S'pull-up (opt.), to 4pin'
p517
sg6
S'SDA'
p518
sg8
g9
ssI119
(dp519
g2
S'cmos output'
p520
sg4
S'to led + tp'
p521
sg6
S'linkActive'
p522
sg8
g9
ssI120
(dp523
g2
S'unused'
p524
sg4
S'DNC'
p525
sg6
S'DNC'
p526
sg8
g9
ssI121
(dp527
g2
S'unused'
p528
sg4
S'DNC'
p529
sg6
S'DNC'
p530
sg8
g9
ssI122
(dp531
g2
S'bulk'
p532
sg4
S'also in analog part'
p533
sg6
S'gndb'
p534
sg8
g9
ssI123
(dp535
g2
S'protection'
p536
sg4
S'digital pads. to gndd2'
p537
sg6
S'gndo'
p538
sg8
g9
ssI124
(dp539
g2
S'protection'
p540
sg4
S'digital pads, to vddd2'
p541
sg6
S'vddo'
p542
sg8
g9
ssI125
(dp543
g2
S'cmos output'
p544
sg4
S'to led + tp'
p545
sg6
S'readoutEnabled'
p546
sg8
g9
ssI126
(dp547
g2
S'cmos input'
p548
sg4
S'to connector/button, level?'
p549
sg6
S'enableReadout'
p550
sg8
g9
ssI127
(dp551
g2
S'power'
p552
sg4
S'1.8V'
p553
sg6
S'vddd2'
p554
sg8
S'gndd2'
p555
ssI128
(dp556
g2
S'power'
p557
sg4
S'0.0V'
p558
sg6
S'gndd2'
p559
sg8
S'vddd2'
p560
ssI129
(dp561
g2
S'lvds output'
p562
sg4
S'to analog injection'
p563
sg6
S'triggerOutN'
p564
sg8
g9
ssI130
(dp565
g2
S'lvds output'
p566
sg4
S'to analog injection'
p567
sg6
S'triggerOutP'
p568
sg8
g9
ssI131
(dp569
g2
S'lvds input'
p570
sg4
S'to connector'
p571
sg6
S'dataInN'
p572
sg8
g9
ssI132
(dp573
g2
S'lvds input'
p574
sg4
S'to connector'
p575
sg6
S'dataInP'
p576
sg8
g9
ssI133
(dp577
g2
S'lvds bias'
p578
sg4
S'slow links'
p579
sg6
S'BiasNRightOut1'
p580
sg8
S'gndd2'
p581
ssI134
(dp582
g2
S'cmos input'
p583
sg4
S'to FPGA + pullup'
p584
sg6
S'resN'
p585
sg8
g9
ssI135
(dp586
g2
S'lvds bias'
p587
sg4
S'slow links'
p588
sg6
S'BiasNRightIn'
p589
sg8
S'gndd2'
p590
ssI136
(dp591
g2
S'protection'
p592
sg4
S'digital pads. to gndd2'
p593
sg6
S'gndo'
p594
sg8
g9
ssI137
(dp595
g2
S'protection'
p596
sg4
S'digital pads, to vddd2'
p597
sg6
S'vddo'
p598
sg8
g9
ssI138
(dp599
g2
S'bulk'
p600
sg4
S'also in analog part'
p601
sg6
S'gndb'
p602
sg8
g9
ssI139
(dp603
g2
S'power'
p604
sg4
S'1.8V'
p605
sg6
S'vddd2'
p606
sg8
S'gndd2'
p607
ssI140
(dp608
g2
S'power'
p609
sg4
S'0.0V'
p610
sg6
S'gndd2'
p611
sg8
S'vddd2'
p612
ssI141
(dp613
g2
S'lvds input'
p614
sg4
S'to connector'
p615
sg6
S'clk1N'
p616
sg8
g9
ssI142
(dp617
g2
S'lvds input'
p618
sg4
S'to connector'
p619
sg6
S'clk1P'
p620
sg8
g9
ssI143
(dp621
g2
S'lvds output'
p622
sg4
S'to mmcx, termination'
p623
sg6
S'clk2N'
p624
sg8
g9
ssI144
(dp625
g2
S'lvds output'
p626
sg4
S'to mmcx, termination'
p627
sg6
S'clk2P'
p628
sg8
g9
ssI145
(dp629
g2
S'lvds output'
p630
sg4
S'to mmcx, termination'
p631
sg6
S'clk10N'
p632
sg8
g9
ssI146
(dp633
g2
S'lvds output'
p634
sg4
S'to mmcx, termination'
p635
sg6
S'clk10P'
p636
sg8
g9
ssI147
(dp637
g2
S'lvds output'
p638
sg4
S'to connector'
p639
sg6
S'miscOutTopP0'
p640
sg8
g9
ssI148
(dp641
g2
S'lvds output'
p642
sg4
S'to connector'
p643
sg6
S'miscOutTopN0'
p644
sg8
g9
ssI149
(dp645
g2
S'power'
p646
sg4
S'0.0V'
p647
sg6
S'gndd2'
p648
sg8
S'vddd2'
p649
ssI150
(dp650
g2
S'power'
p651
sg4
S'1.8V'
p652
sg6
S'vddd2'
p653
sg8
S'gndd2'
p654
ssI151
(dp655
g2
S'lvds output'
p656
sg4
S'to connector'
p657
sg6
S'miscOutTopP1'
p658
sg8
g9
ssI152
(dp659
g2
S'lvds output'
p660
sg4
S'to connector'
p661
sg6
S'miscOutTopN1'
p662
sg8
g9
ssI153
(dp663
g2
S'lvds bias'
p664
sg4
g359
sg6
S'BiasNTopOut'
p665
sg8
S'gndd2'
p666
ssI154
(dp667
g2
S'bulk'
p668
sg4
S'also in analog part'
p669
sg6
S'gndb'
p670
sg8
g9
ssI155
(dp671
g2
S'protection'
p672
sg4
S'digital pads. to gndd2'
p673
sg6
S'gndo'
p674
sg8
g9
ssI156
(dp675
g2
S'protection'
p676
sg4
S'digital pads, to vddd2'
p677
sg6
S'vddo'
p678
sg8
g9
ssI157
(dp679
g2
S'lvds output'
p680
sg4
S'to connector'
p681
sg6
S'miscOutTopP2'
p682
sg8
g9
ssI158
(dp683
g2
S'lvds output'
p684
sg4
S'to connector'
p685
sg6
S'miscOutTopN2'
p686
sg8
g9
ssI159
(dp687
g2
S'power'
p688
sg4
S'0.0V'
p689
sg6
S'gndd2'
p690
sg8
S'vddd2'
p691
ssI160
(dp692
g2
S'power'
p693
sg4
S'1.8V'
p694
sg6
S'vddd2'
p695
sg8
S'gndd2'
p696
ssI161
(dp697
g2
S'lvds input'
p698
sg4
S'to connector'
p699
sg6
S'miscInTopP0'
p700
sg8
g9
ssI162
(dp701
g2
S'lvds input'
p702
sg4
S'to connector'
p703
sg6
S'miscInTopN0'
p704
sg8
g9
ssI163
(dp705
g2
S'lvds bias'
p706
sg4
g359
sg6
S'BiasNTopIn'
p707
sg8
S'gndd2'
p708
ssI164
(dp709
g2
S'lvds input'
p710
sg4
S'to connector'
p711
sg6
S'miscInTopP1'
p712
sg8
g9
ssI165
(dp713
g2
S'lvds input'
p714
sg4
S'to connector'
p715
sg6
S'miscInTopN1'
p716
sg8
g9
ssI166
(dp717
g2
S'lvds input'
p718
sg4
S'to connector'
p719
sg6
S'miscInTopP2'
p720
sg8
g9
ssI167
(dp721
g2
S'lvds input'
p722
sg4
S'to connector'
p723
sg6
S'miscInTopN2'
p724
sg8
g9
ssI168
(dp725
g2
S'power'
p726
sg4
S'0.0V'
p727
sg6
S'gndd2'
p728
sg8
S'vddd2'
p729
ssI169
(dp730
g2
S'power'
p731
sg4
S'1.8V'
p732
sg6
S'vddd2'
p733
sg8
S'gndd2'
p734
ssI170
(dp735
g2
S'lvds input'
p736
sg4
S'to connector'
p737
sg6
S'miscInTopP3'
p738
sg8
g9
ssI171
(dp739
g2
S'lvds input'
p740
sg4
S'to connector'
p741
sg6
S'miscInTopN3'
p742
sg8
g9
ssI172
(dp743
g2
S'bulk'
p744
sg4
S'also in analog part'
p745
sg6
S'gndb'
p746
sg8
g9
ssI173
(dp747
g2
S'protection'
p748
sg4
S'digital pads. to gndd2'
p749
sg6
S'gndo'
p750
sg8
g9
ssI174
(dp751
g2
S'protection'
p752
sg4
S'digital pads, to vddd2'
p753
sg6
S'vddo'
p754
sg8
g9
ssI175
(dp755
g2
S'unused'
p756
sg4
S'DNC'
p757
sg6
S'DNC'
p758
sg8
g9
ssI176
(dp759
g2
S'unused'
p760
sg4
S'DNC'
p761
sg6
S'DNC'
p762
sg8
g9
ssI177
(dp763
g2
S'power'
p764
sg4
S'0.0V'
p765
sg6
S'gndd2'
p766
sg8
S'vddd2'
p767
ssI178
(dp768
g2
S'power'
p769
sg4
S'1.8V'
p770
sg6
S'vddd2'
p771
sg8
S'gndd2'
p772
ssI179
(dp773
g2
S'unused'
p774
sg4
S'DNC'
p775
sg6
S'DNC'
p776
sg8
g9
ssI180
(dp777
g2
S'protection'
p778
sg4
S'upper ADC pins, to gnda'
p779
sg6
S'gndp2'
p780
sg8
g9
ssI181
(dp781
g2
S'protection'
p782
sg4
S'upper ADC pins, to vdda'
p783
sg6
S'vddp2'
p784
sg8
g9
ssI182
(dp785
g2
S'bulk'
p786
sg4
S'also in digital part'
p787
sg6
S'gndb'
p788
sg8
g9
ssI183
(dp789
g2
S'power'
p790
sg4
S'ADC digital 0.0V'
p791
sg6
S'gndd1'
p792
sg8
S'vddd1'
p793
ssI184
(dp794
g2
S'power'
p795
sg4
S'ADC digital 1.8V'
p796
sg6
S'vddd1'
p797
sg8
S'gndd1'
p798
ssI185
(dp799
g2
S'power'
p800
sg4
S'ADC analog 0.96V'
p801
sg6
S'RefIn'
p802
sg8
S'gnda'
p803
ssI186
(dp804
g2
S'power'
p805
sg4
S'ADC analog 0.3V'
p806
sg6
S'AmpLow'
p807
sg8
S'vdda'
p808
ssI187
(dp809
g2
S'power'
p810
sg4
S'ADC analog 0.0V'
p811
sg6
S'gnda'
p812
sg8
S'vdda'
p813
ssI188
(dp814
g2
S'power'
p815
sg4
S'ADC analog 1.8V'
p816
sg6
S'vdda'
p817
sg8
S'gnda'
p818
ssI189
(dp819
g2
S'monitor'
p820
sg4
S'ADC + CSA, switchable, mmcx'
p821
sg6
S'Monitor'
p822
sg8
g9
ssI190
(dp823
g2
S'bias'
p824
sg4
S'DAC reference'
p825
sg6
S'BiasP'
p826
sg8
S'vddc'
p827
ssI191
(dp828
g2
S'bias'
p829
sg4
S'CSA'
p830
sg6
S'nSourceBias'
p831
sg8
S'gndc'
p832
ssI192
(dp833
g2
S'bias'
p834
sg4
S'CSA'
p835
sg6
S'pSourceBias'
p836
sg8
S'vddc'
p837
ssI193
(dp838
g2
S'bias'
p839
sg4
S'CSA'
p840
sg6
S'nCasc'
p841
sg8
S'gndc'
p842
ssI194
(dp843
g2
S'bias'
p844
sg4
S'CSA'
p845
sg6
S'pCasc'
p846
sg8
S'vddc'
p847
ssI195
(dp848
g2
S'bias'
p849
sg4
S'CSA'
p850
sg6
S'xFB'
p851
sg8
S'p:gndc,n:vddc'
p852
ss.